target datalayout = "e-m:e-p270:32:32-p271:32:32-p272:64:64-i64:64-i128:128-f80:128-n8:16:32:64-S128"
target triple = "x86_64-pc-linux-gnu"

; Function Attrs: inlinehint mustprogress nounwind uwtable
define linkonce_odr hidden noundef zeroext i1 @_ZN10ODDLParser9isNumericIcEEbT_(i8 noundef signext %0) #12 comdat {
  %2 = alloca i1, align 1
  %3 = alloca i8, align 1
  %4 = alloca i64, align 8
  store i8 %0, ptr %3, align 1
  %5 = load i8, ptr %3, align 1
  %6 = sext i8 %5 to i64
  %7 = icmp uge i64 %6, 256
  br i1 %7, label %8, label %9

8:                                                ; preds = %1
  store i1 false, ptr %2, align 1
  br label %22

9:                                                ; preds = %1
  call void @llvm.lifetime.start.p0(i64 8, ptr %4) #3
  %10 = load i8, ptr %3, align 1
  %11 = sext i8 %10 to i64
  store i64 %11, ptr %4, align 8
  %12 = load i64, ptr %4, align 8
  %13 = icmp ult i64 %12, 256
  br i1 %13, label %14, label %20

14:                                               ; preds = %9
  %15 = load i64, ptr %4, align 8
  %16 = getelementptr inbounds nuw [256 x i8], ptr @_ZN10ODDLParserL14chartype_tableE, i64 0, i64 %15
  %17 = load i8, ptr %16, align 1
  %18 = zext i8 %17 to i32
  %19 = icmp eq i32 %18, 1
  br label %20

20:                                               ; preds = %14, %9
  %21 = phi i1 [ false, %9 ], [ %19, %14 ]
  store i1 %21, ptr %2, align 1
  call void @llvm.lifetime.end.p0(i64 8, ptr %4) #3
  br label %22

22:                                               ; preds = %20, %8
  %23 = load i1, ptr %2, align 1
  ret i1 %23
}

; Function Attrs: inlinehint mustprogress nounwind uwtable
define linkonce_odr hidden noundef zeroext i1 @_ZN10ODDLParser9isNewLineIcEEbT_(i8 noundef signext %0) #12 comdat {
  %2 = alloca i8, align 1
  store i8 %0, ptr %2, align 1
  %3 = load i8, ptr %2, align 1
  %4 = sext i8 %3 to i32
  %5 = icmp eq i32 10, %4
  br i1 %5, label %10, label %6

6:                                                ; preds = %1
  %7 = load i8, ptr %2, align 1
  %8 = sext i8 %7 to i32
  %9 = icmp eq i32 13, %8
  br label %10

10:                                               ; preds = %6, %1
  %11 = phi i1 [ true, %1 ], [ %9, %6 ]
  ret i1 %11
}

; Function Attrs: inlinehint mustprogress nounwind uwtable
define linkonce_odr hidden noundef zeroext i1 @_ZN10ODDLParser7isSpaceIcEEbT_(i8 noundef signext %0) #12 comdat {
  %2 = alloca i8, align 1
  store i8 %0, ptr %2, align 1
  %3 = load i8, ptr %2, align 1
  %4 = sext i8 %3 to i32
  %5 = icmp eq i32 32, %4
  br i1 %5, label %10, label %6

6:                                                ; preds = %1
  %7 = load i8, ptr %2, align 1
  %8 = sext i8 %7 to i32
  %9 = icmp eq i32 9, %8
  br label %10

10:                                               ; preds = %6, %1
  %11 = phi i1 [ true, %1 ], [ %9, %6 ]
  ret i1 %11
}

; Function Attrs: inlinehint mustprogress nounwind uwtable
define linkonce_odr hidden noundef zeroext i1 @_ZN10ODDLParser11isEndofLineIcEEbT_(i8 noundef signext %0) #12 comdat {
  %2 = alloca i8, align 1
  store i8 %0, ptr %2, align 1
  %3 = load i8, ptr %2, align 1
  %4 = sext i8 %3 to i32
  %5 = icmp eq i32 10, %4
  ret i1 %5
}

; Function Attrs: inlinehint mustprogress uwtable
define linkonce_odr hidden noundef i32 @_ZN10ODDLParser11hex2DecimalEc(i8 noundef signext %0) #10 comdat {
  %2 = alloca i32, align 4
  %3 = alloca i8, align 1
  %4 = alloca i8, align 1
  %5 = alloca i8, align 1
  %6 = alloca i32, align 4
  %7 = alloca i32, align 4
  store i8 %0, ptr %3, align 1
  %8 = load i8, ptr %3, align 1
  %9 = call noundef zeroext i1 @_ZN10ODDLParser9isNumericIcEEbT_(i8 noundef signext %8)
  br i1 %9, label %10, label %14

10:                                               ; preds = %1
  %11 = load i8, ptr %3, align 1
  %12 = sext i8 %11 to i32
  %13 = sub nsw i32 %12, 48
  store i32 %13, ptr %2, align 4
  br label %46

14:                                               ; preds = %1
  call void @llvm.lifetime.start.p0(i64 1, ptr %4) #3
  store i8 97, ptr %4, align 1
  call void @llvm.lifetime.start.p0(i64 1, ptr %5) #3
  store i8 65, ptr %5, align 1
  call void @llvm.lifetime.start.p0(i64 4, ptr %6) #3
  store i32 0, ptr %6, align 4
  br label %15

15:                                               ; preds = %39, %14
  %16 = load i32, ptr %6, align 4
  %17 = icmp slt i32 %16, 16
  br i1 %17, label %19, label %18

18:                                               ; preds = %15
  store i32 2, ptr %7, align 4
  br label %42

19:                                               ; preds = %15
  %20 = load i8, ptr %3, align 1
  %21 = sext i8 %20 to i32
  %22 = load i8, ptr %4, align 1
  %23 = sext i8 %22 to i32
  %24 = load i32, ptr %6, align 4
  %25 = add nsw i32 %23, %24
  %26 = icmp eq i32 %21, %25
  br i1 %26, label %35, label %27

27:                                               ; preds = %19
  %28 = load i8, ptr %3, align 1
  %29 = sext i8 %28 to i32
  %30 = load i8, ptr %5, align 1
  %31 = sext i8 %30 to i32
  %32 = load i32, ptr %6, align 4
  %33 = add nsw i32 %31, %32
  %34 = icmp eq i32 %29, %33
  br i1 %34, label %35, label %38

35:                                               ; preds = %27, %19
  %36 = load i32, ptr %6, align 4
  %37 = add nsw i32 %36, 10
  store i32 %37, ptr %2, align 4
  store i32 1, ptr %7, align 4
  br label %42

38:                                               ; preds = %27
  br label %39

39:                                               ; preds = %38
  %40 = load i32, ptr %6, align 4
  %41 = add nsw i32 %40, 1
  store i32 %41, ptr %6, align 4
  br label %15, !llvm.loop !27

42:                                               ; preds = %35, %18
  call void @llvm.lifetime.end.p0(i64 4, ptr %6) #3
  %43 = load i32, ptr %7, align 4
  switch i32 %43, label %45 [
    i32 2, label %44
  ]

44:                                               ; preds = %42
  store i32 9999999, ptr %2, align 4
  store i32 1, ptr %7, align 4
  br label %45

45:                                               ; preds = %44, %42
  call void @llvm.lifetime.end.p0(i64 1, ptr %5) #3
  call void @llvm.lifetime.end.p0(i64 1, ptr %4) #3
  br label %46

46:                                               ; preds = %45, %10
  %47 = load i32, ptr %2, align 4
  ret i32 %47
}

; Function Attrs: inlinehint mustprogress uwtable
define linkonce_odr hidden noundef zeroext i1 @_ZN10ODDLParser11isSeparatorIcEEbT_(i8 noundef signext %0) #10 comdat {
  %2 = alloca i1, align 1
  %3 = alloca i8, align 1
  store i8 %0, ptr %3, align 1
  %4 = load i8, ptr %3, align 1
  %5 = call noundef zeroext i1 @_ZN10ODDLParser7isSpaceIcEEbT_(i8 noundef signext %4)
  br i1 %5, label %30, label %6

6:                                                ; preds = %1
  %7 = load i8, ptr %3, align 1
  %8 = sext i8 %7 to i32
  %9 = icmp eq i32 44, %8
  br i1 %9, label %30, label %10

10:                                               ; preds = %6
  %11 = load i8, ptr %3, align 1
  %12 = sext i8 %11 to i32
  %13 = icmp eq i32 123, %12
  br i1 %13, label %30, label %14

14:                                               ; preds = %10
  %15 = load i8, ptr %3, align 1
  %16 = sext i8 %15 to i32
  %17 = icmp eq i32 125, %16
  br i1 %17, label %30, label %18

18:                                               ; preds = %14
  %19 = load i8, ptr %3, align 1
  %20 = sext i8 %19 to i32
  %21 = icmp eq i32 91, %20
  br i1 %21, label %30, label %22

22:                                               ; preds = %18
  %23 = load i8, ptr %3, align 1
  %24 = sext i8 %23 to i32
  %25 = icmp eq i32 40, %24
  br i1 %25, label %30, label %26

26:                                               ; preds = %22
  %27 = load i8, ptr %3, align 1
  %28 = sext i8 %27 to i32
  %29 = icmp eq i32 41, %28
  br i1 %29, label %30, label %31

30:                                               ; preds = %26, %22, %18, %14, %10, %6, %1
  store i1 true, ptr %2, align 1
  br label %32

31:                                               ; preds = %26
  store i1 false, ptr %2, align 1
  br label %32

32:                                               ; preds = %31, %30
  %33 = load i1, ptr %2, align 1
  ret i1 %33
}

; Function Attrs: inlinehint mustprogress uwtable
define linkonce_odr hidden noundef ptr @_ZN10ODDLParser16lookForNextTokenIcEEPT_S2_S2_(ptr noundef %0, ptr noundef %1) #10 comdat {
  %3 = alloca ptr, align 8
  %4 = alloca ptr, align 8
  store ptr %0, ptr %3, align 8
  store ptr %1, ptr %4, align 8
  br label %5

5:                                                ; preds = %26, %2
  %6 = load ptr, ptr %3, align 8
  %7 = load ptr, ptr %4, align 8
  %8 = icmp ne ptr %6, %7
  br i1 %8, label %9, label %24

9:                                                ; preds = %5
  %10 = load ptr, ptr %3, align 8
  %11 = load i8, ptr %10, align 1
  %12 = call noundef zeroext i1 @_ZN10ODDLParser7isSpaceIcEEbT_(i8 noundef signext %11)
  br i1 %12, label %22, label %13

13:                                               ; preds = %9
  %14 = load ptr, ptr %3, align 8
  %15 = load i8, ptr %14, align 1
  %16 = call noundef zeroext i1 @_ZN10ODDLParser9isNewLineIcEEbT_(i8 noundef signext %15)
  br i1 %16, label %22, label %17

17:                                               ; preds = %13
  %18 = load ptr, ptr %3, align 8
  %19 = load i8, ptr %18, align 1
  %20 = sext i8 %19 to i32
  %21 = icmp eq i32 44, %20
  br label %22

22:                                               ; preds = %17, %13, %9
  %23 = phi i1 [ true, %13 ], [ true, %9 ], [ %21, %17 ]
  br label %24

24:                                               ; preds = %22, %5
  %25 = phi i1 [ false, %5 ], [ %23, %22 ]
  br i1 %25, label %26, label %29

26:                                               ; preds = %24
  %27 = load ptr, ptr %3, align 8
  %28 = getelementptr inbounds nuw i8, ptr %27, i32 1
  store ptr %28, ptr %3, align 8
  br label %5, !llvm.loop !13

29:                                               ; preds = %24
  %30 = load ptr, ptr %3, align 8
  ret ptr %30
}

; Function Attrs: mustprogress uwtable
define hidden noundef ptr @_ZN10ODDLParser13OpenDDLParser16parseHexaLiteralEPcS1_PPNS_5ValueE(ptr noundef %0, ptr noundef %1, ptr noundef %2) #6 align 2 {
  %4 = alloca ptr, align 8
  %5 = alloca ptr, align 8
  %6 = alloca ptr, align 8
  %7 = alloca ptr, align 8
  %8 = alloca i8, align 1
  %9 = alloca ptr, align 8
  %10 = alloca i32, align 4
  %11 = alloca i32, align 4
  %12 = alloca i32, align 4
  %13 = alloca i32, align 4
  store ptr %0, ptr %5, align 8
  store ptr %1, ptr %6, align 8
  store ptr %2, ptr %7, align 8
  %14 = load ptr, ptr %7, align 8
  store ptr null, ptr %14, align 8
  %15 = load ptr, ptr %5, align 8
  %16 = icmp eq ptr null, %15
  br i1 %16, label %21, label %17

17:                                               ; preds = %3
  %18 = load ptr, ptr %5, align 8
  %19 = load ptr, ptr %6, align 8
  %20 = icmp eq ptr %18, %19
  br i1 %20, label %21, label %23

21:                                               ; preds = %17, %3
  %22 = load ptr, ptr %5, align 8
  store ptr %22, ptr %4, align 8
  br label %149

23:                                               ; preds = %17
  %24 = load ptr, ptr %5, align 8
  %25 = load ptr, ptr %6, align 8
  %26 = call noundef ptr @_ZN10ODDLParser16lookForNextTokenIcEEPT_S2_S2_(ptr noundef %24, ptr noundef %25)
  store ptr %26, ptr %5, align 8
  %27 = load ptr, ptr %5, align 8
  %28 = load i8, ptr %27, align 1
  %29 = sext i8 %28 to i32
  %30 = icmp ne i32 %29, 48
  br i1 %30, label %31, label %33

31:                                               ; preds = %23
  %32 = load ptr, ptr %5, align 8
  store ptr %32, ptr %4, align 8
  br label %149

33:                                               ; preds = %23
  %34 = load ptr, ptr %5, align 8
  %35 = getelementptr inbounds nuw i8, ptr %34, i32 1
  store ptr %35, ptr %5, align 8
  %36 = load ptr, ptr %5, align 8
  %37 = load i8, ptr %36, align 1
  %38 = sext i8 %37 to i32
  %39 = icmp ne i32 %38, 120
  br i1 %39, label %40, label %47

40:                                               ; preds = %33
  %41 = load ptr, ptr %5, align 8
  %42 = load i8, ptr %41, align 1
  %43 = sext i8 %42 to i32
  %44 = icmp ne i32 %43, 88
  br i1 %44, label %45, label %47

45:                                               ; preds = %40
  %46 = load ptr, ptr %5, align 8
  store ptr %46, ptr %4, align 8
  br label %149

47:                                               ; preds = %40, %33
  %48 = load ptr, ptr %5, align 8
  %49 = getelementptr inbounds nuw i8, ptr %48, i32 1
  store ptr %49, ptr %5, align 8
  call void @llvm.lifetime.start.p0(i64 1, ptr %8) #3
  store i8 1, ptr %8, align 1
  call void @llvm.lifetime.start.p0(i64 8, ptr %9) #3
  %50 = load ptr, ptr %5, align 8
  store ptr %50, ptr %9, align 8
  call void @llvm.lifetime.start.p0(i64 4, ptr %10) #3
  store i32 0, ptr %10, align 4
  br label %51

51:                                               ; preds = %92, %47
  %52 = load ptr, ptr %5, align 8
  %53 = load i8, ptr %52, align 1
  %54 = call noundef zeroext i1 @_ZN10ODDLParser11isSeparatorIcEEbT_(i8 noundef signext %53)
  br i1 %54, label %59, label %55

55:                                               ; preds = %51
  %56 = load ptr, ptr %5, align 8
  %57 = load ptr, ptr %6, align 8
  %58 = icmp ne ptr %56, %57
  br label %59

59:                                               ; preds = %55, %51
  %60 = phi i1 [ false, %51 ], [ %58, %55 ]
  br i1 %60, label %61, label %97

61:                                               ; preds = %59
  %62 = load ptr, ptr %5, align 8
  %63 = load i8, ptr %62, align 1
  %64 = sext i8 %63 to i32
  %65 = icmp slt i32 %64, 48
  br i1 %65, label %66, label %71

66:                                               ; preds = %61
  %67 = load ptr, ptr %5, align 8
  %68 = load i8, ptr %67, align 1
  %69 = sext i8 %68 to i32
  %70 = icmp sgt i32 %69, 57
  br i1 %70, label %91, label %71

71:                                               ; preds = %66, %61
  %72 = load ptr, ptr %5, align 8
  %73 = load i8, ptr %72, align 1
  %74 = sext i8 %73 to i32
  %75 = icmp slt i32 %74, 97
  br i1 %75, label %76, label %81

76:                                               ; preds = %71
  %77 = load ptr, ptr %5, align 8
  %78 = load i8, ptr %77, align 1
  %79 = sext i8 %78 to i32
  %80 = icmp sgt i32 %79, 102
  br i1 %80, label %91, label %81

81:                                               ; preds = %76, %71
  %82 = load ptr, ptr %5, align 8
  %83 = load i8, ptr %82, align 1
  %84 = sext i8 %83 to i32
  %85 = icmp slt i32 %84, 65
  br i1 %85, label %86, label %92

86:                                               ; preds = %81
  %87 = load ptr, ptr %5, align 8
  %88 = load i8, ptr %87, align 1
  %89 = sext i8 %88 to i32
  %90 = icmp sgt i32 %89, 70
  br i1 %90, label %91, label %92

91:                                               ; preds = %86, %76, %66
  store i8 0, ptr %8, align 1
  br label %97

92:                                               ; preds = %86, %81
  %93 = load i32, ptr %10, align 4
  %94 = add nsw i32 %93, 1
  store i32 %94, ptr %10, align 4
  %95 = load ptr, ptr %5, align 8
  %96 = getelementptr inbounds nuw i8, ptr %95, i32 1
  store ptr %96, ptr %5, align 8
  br label %51, !llvm.loop !23

97:                                               ; preds = %91, %59
  %98 = load i8, ptr %8, align 1, !range !10, !noundef !11
  %99 = trunc i8 %98 to i1
  br i1 %99, label %102, label %100

100:                                              ; preds = %97
  %101 = load ptr, ptr %5, align 8
  store ptr %101, ptr %4, align 8
  store i32 1, ptr %11, align 4
  br label %148

102:                                              ; preds = %97
  call void @llvm.lifetime.start.p0(i64 4, ptr %12) #3
  store i32 0, ptr %12, align 4
  br label %103

103:                                              ; preds = %133, %102
  %104 = load i32, ptr %10, align 4
  %105 = icmp sgt i32 %104, 0
  br i1 %105, label %106, label %134

106:                                              ; preds = %103
  call void @llvm.lifetime.start.p0(i64 4, ptr %13) #3
  %107 = load ptr, ptr %9, align 8
  %108 = load i8, ptr %107, align 1
  %109 = call noundef i32 @_ZN10ODDLParser11hex2DecimalEc(i8 noundef signext %108)
  store i32 %109, ptr %13, align 4
  %110 = load i32, ptr %13, align 4
  %111 = icmp slt i32 %110, 0
  br i1 %111, label %112, label %122

112:                                              ; preds = %106
  br label %113

113:                                              ; preds = %117, %112
  %114 = load ptr, ptr %5, align 8
  %115 = load i8, ptr %114, align 1
  %116 = call noundef zeroext i1 @_ZN10ODDLParser11isEndofLineIcEEbT_(i8 noundef signext %115)
  br i1 %116, label %117, label %120

117:                                              ; preds = %113
  %118 = load ptr, ptr %5, align 8
  %119 = getelementptr inbounds nuw i8, ptr %118, i32 1
  store ptr %119, ptr %5, align 8
  br label %113, !llvm.loop !24

120:                                              ; preds = %113
  %121 = load ptr, ptr %5, align 8
  store ptr %121, ptr %4, align 8
  store i32 1, ptr %11, align 4
  br label %131

122:                                              ; preds = %106
  %123 = load i32, ptr %10, align 4
  %124 = add nsw i32 %123, -1
  store i32 %124, ptr %10, align 4
  %125 = load i32, ptr %12, align 4
  %126 = shl i32 %125, 4
  %127 = load i32, ptr %13, align 4
  %128 = or i32 %126, %127
  store i32 %128, ptr %12, align 4
  %129 = load ptr, ptr %9, align 8
  %130 = getelementptr inbounds nuw i8, ptr %129, i32 1
  store ptr %130, ptr %9, align 8
  store i32 0, ptr %11, align 4
  br label %131

131:                                              ; preds = %122, %120
  call void @llvm.lifetime.end.p0(i64 4, ptr %13) #3
  %132 = load i32, ptr %11, align 4
  switch i32 %132, label %147 [
    i32 0, label %133
  ]

133:                                              ; preds = %131
  br label %103, !llvm.loop !25

134:                                              ; preds = %103
  %135 = call noundef ptr @_ZN10ODDLParser14ValueAllocator13allocPrimDataENS_5Value9ValueTypeEm(i32 noundef 8, i64 noundef 1)
  %136 = load ptr, ptr %7, align 8
  store ptr %135, ptr %136, align 8
  %137 = load ptr, ptr %7, align 8
  %138 = load ptr, ptr %137, align 8
  %139 = icmp ne ptr null, %138
  br i1 %139, label %140, label %145

140:                                              ; preds = %134
  %141 = load ptr, ptr %7, align 8
  %142 = load ptr, ptr %141, align 8
  %143 = load i32, ptr %12, align 4
  %144 = sext i32 %143 to i64
  call void @_ZN10ODDLParser5Value16setUnsignedInt64Em(ptr noundef nonnull align 8 dereferenceable(32) %142, i64 noundef %144)
  br label %145

145:                                              ; preds = %140, %134
  %146 = load ptr, ptr %5, align 8
  store ptr %146, ptr %4, align 8
  store i32 1, ptr %11, align 4
  br label %147

147:                                              ; preds = %145, %131
  call void @llvm.lifetime.end.p0(i64 4, ptr %12) #3
  br label %148

148:                                              ; preds = %147, %100
  call void @llvm.lifetime.end.p0(i64 4, ptr %10) #3
  call void @llvm.lifetime.end.p0(i64 8, ptr %9) #3
  call void @llvm.lifetime.end.p0(i64 1, ptr %8) #3
  br label %149

149:                                              ; preds = %148, %45, %31, %21
  %150 = load ptr, ptr %4, align 8
  ret ptr %150
}