; Function Attrs: mustprogress uwtable
define hidden noundef ptr @_ZN10ODDLParser13OpenDDLParser16parseHexaLiteralEPcS1_PPNS_5ValueE(ptr noundef %0, ptr noundef %1, ptr noundef writeonly captures(none) initializes((0, 8)) %2) local_unnamed_addr #6 align 2 {
  store ptr null, ptr %2, align 8
  %4 = icmp eq ptr %0, null
  %5 = icmp eq ptr %0, %1
  %or.cond = or i1 %4, %5
  br i1 %or.cond, label %.loopexit, label %.lr.ph.preheader.i

.lr.ph.preheader.i:                               ; preds = %3
  %6 = ptrtoint ptr %1 to i64
  %7 = ptrtoint ptr %0 to i64
  %8 = sub i64 %6, %7
  %scevgep.i = getelementptr i8, ptr %0, i64 %8
  br label %.lr.ph.i

.lr.ph.i:                                         ; preds = %.critedge2.i, %.lr.ph.preheader.i
  %.010.i = phi ptr [ %10, %.critedge2.i ], [ %0, %.lr.ph.preheader.i ]
  %9 = load i8, ptr %.010.i, align 1
  switch i8 %9, label %_ZN10ODDLParser16lookForNextTokenIcEEPT_S2_S2_.exit [
    i8 32, label %.critedge2.i
    i8 9, label %.critedge2.i
    i8 13, label %.critedge2.i
    i8 10, label %.critedge2.i
    i8 44, label %.critedge2.i
  ]

.critedge2.i:                                     ; preds = %.lr.ph.i, %.lr.ph.i, %.lr.ph.i, %.lr.ph.i, %.lr.ph.i
  %10 = getelementptr inbounds nuw i8, ptr %.010.i, i64 1
  %.not.i = icmp eq ptr %10, %1
  br i1 %.not.i, label %_ZN10ODDLParser16lookForNextTokenIcEEPT_S2_S2_.exitthread-pre-split, label %.lr.ph.i, !llvm.loop !8

_ZN10ODDLParser16lookForNextTokenIcEEPT_S2_S2_.exitthread-pre-split: ; preds = %.critedge2.i
  %.pr = load i8, ptr %scevgep.i, align 1
  br label %_ZN10ODDLParser16lookForNextTokenIcEEPT_S2_S2_.exit

_ZN10ODDLParser16lookForNextTokenIcEEPT_S2_S2_.exit: ; preds = %.lr.ph.i, %_ZN10ODDLParser16lookForNextTokenIcEEPT_S2_S2_.exitthread-pre-split
  %11 = phi i8 [ %.pr, %_ZN10ODDLParser16lookForNextTokenIcEEPT_S2_S2_.exitthread-pre-split ], [ %9, %.lr.ph.i ]
  %.0.lcssa.i = phi ptr [ %scevgep.i, %_ZN10ODDLParser16lookForNextTokenIcEEPT_S2_S2_.exitthread-pre-split ], [ %.010.i, %.lr.ph.i ]
  %.0.lcssa.i106 = ptrtoint ptr %.0.lcssa.i to i64
  %.not = icmp eq i8 %11, 48
  br i1 %.not, label %12, label %.loopexit

12:                                               ; preds = %_ZN10ODDLParser16lookForNextTokenIcEEPT_S2_S2_.exit
  %13 = getelementptr inbounds nuw i8, ptr %.0.lcssa.i, i64 1
  %14 = load i8, ptr %13, align 1
  switch i8 %14, label %.loopexit [
    i8 120, label %15
    i8 88, label %15
  ]

15:                                               ; preds = %12, %12
  %16 = getelementptr inbounds nuw i8, ptr %.0.lcssa.i, i64 2
  %17 = icmp eq ptr %16, %1
  br i1 %17, label %._crit_edge, label %switch.early.test.preheader

switch.early.test.preheader:                      ; preds = %15
  %18 = sub i64 %6, %.0.lcssa.i106
  %scevgep = getelementptr i8, ptr %.0.lcssa.i, i64 %18
  %19 = trunc i64 %6 to i32
  %20 = add i32 %19, -2
  %21 = trunc i64 %.0.lcssa.i106 to i32
  %22 = sub i32 %20, %21
  br label %switch.early.test

switch.early.test:                                ; preds = %switch.early.test.preheader, %25
  %.04774 = phi i32 [ %26, %25 ], [ 0, %switch.early.test.preheader ]
  %.05373 = phi ptr [ %27, %25 ], [ %16, %switch.early.test.preheader ]
  %23 = load i8, ptr %.05373, align 1
  switch i8 %23, label %25 [
    i8 125, label %.preheader69
    i8 123, label %.preheader69
    i8 91, label %.preheader69
    i8 44, label %.preheader69
    i8 41, label %.preheader69
    i8 40, label %.preheader69
    i8 32, label %.preheader69
    i8 9, label %.preheader69
  ]

.preheader69:                                     ; preds = %switch.early.test, %switch.early.test, %switch.early.test, %switch.early.test, %switch.early.test, %switch.early.test, %switch.early.test, %switch.early.test, %25
  %.053.lcssa = phi ptr [ %.05373, %switch.early.test ], [ %.05373, %switch.early.test ], [ %.05373, %switch.early.test ], [ %.05373, %switch.early.test ], [ %.05373, %switch.early.test ], [ %.05373, %switch.early.test ], [ %.05373, %switch.early.test ], [ %.05373, %switch.early.test ], [ %scevgep, %25 ]
  %.047.lcssa = phi i32 [ %.04774, %switch.early.test ], [ %.04774, %switch.early.test ], [ %.04774, %switch.early.test ], [ %.04774, %switch.early.test ], [ %.04774, %switch.early.test ], [ %.04774, %switch.early.test ], [ %.04774, %switch.early.test ], [ %.04774, %switch.early.test ], [ %22, %25 ]
  %24 = icmp sgt i32 %.047.lcssa, 0
  br i1 %24, label %.lr.ph, label %._crit_edge

25:                                               ; preds = %switch.early.test
  %26 = add nuw nsw i32 %.04774, 1
  %27 = getelementptr inbounds nuw i8, ptr %.05373, i64 1
  %28 = icmp eq ptr %27, %1
  br i1 %28, label %.preheader69, label %switch.early.test, !llvm.loop !36

.lr.ph:                                           ; preds = %.preheader69, %_ZN10ODDLParser11hex2DecimalEc.exit.thread
  %.044101 = phi i32 [ %49, %_ZN10ODDLParser11hex2DecimalEc.exit.thread ], [ 0, %.preheader69 ]
  %.148100 = phi i32 [ %47, %_ZN10ODDLParser11hex2DecimalEc.exit.thread ], [ %.047.lcssa, %.preheader69 ]
  %.05099 = phi ptr [ %50, %_ZN10ODDLParser11hex2DecimalEc.exit.thread ], [ %16, %.preheader69 ]
  %29 = load i8, ptr %.05099, align 1
  %30 = icmp slt i8 %29, 0
  br i1 %30, label %_ZN10ODDLParser9isNumericIcEEbT_.exit.preheader.i, label %36

_ZN10ODDLParser9isNumericIcEEbT_.exit.preheader.i: ; preds = %36, %.lr.ph
  %31 = sext i8 %29 to i32
  %32 = add nsw i32 %31, -65
  %33 = add nsw i32 %31, -97
  %umin.i = tail call i32 @llvm.umin.i32(i32 %32, i32 %33)
  %34 = icmp ult i32 %umin.i, 16
  %35 = add nuw nsw i32 %umin.i, 10
  %spec.select = select i1 %34, i32 %35, i32 9999999
  br label %_ZN10ODDLParser11hex2DecimalEc.exit.thread

36:                                               ; preds = %.lr.ph
  %37 = zext nneg i8 %29 to i64
  %38 = getelementptr inbounds nuw [256 x i8], ptr @_ZN10ODDLParserL14chartype_tableE, i64 0, i64 %37
  %39 = load i8, ptr %38, align 1
  %40 = icmp eq i8 %39, 1
  br i1 %40, label %_ZN10ODDLParser11hex2DecimalEc.exit, label %_ZN10ODDLParser9isNumericIcEEbT_.exit.preheader.i

_ZN10ODDLParser11hex2DecimalEc.exit:              ; preds = %36
  %41 = zext nneg i8 %29 to i32
  %42 = add nsw i32 %41, -48
  %43 = icmp ugt i8 %29, 47
  br i1 %43, label %_ZN10ODDLParser11hex2DecimalEc.exit.thread, label %.preheader

.preheader:                                       ; preds = %_ZN10ODDLParser11hex2DecimalEc.exit, %.preheader
  %.255 = phi ptr [ %46, %.preheader ], [ %.053.lcssa, %_ZN10ODDLParser11hex2DecimalEc.exit ]
  %44 = load i8, ptr %.255, align 1
  %45 = icmp eq i8 %44, 10
  %46 = getelementptr inbounds nuw i8, ptr %.255, i64 1
  br i1 %45, label %.preheader, label %.loopexit, !llvm.loop !37

_ZN10ODDLParser11hex2DecimalEc.exit.thread:       ; preds = %_ZN10ODDLParser9isNumericIcEEbT_.exit.preheader.i, %_ZN10ODDLParser11hex2DecimalEc.exit
  %.014.i68 = phi i32 [ %42, %_ZN10ODDLParser11hex2DecimalEc.exit ], [ %spec.select, %_ZN10ODDLParser9isNumericIcEEbT_.exit.preheader.i ]
  %47 = add nsw i32 %.148100, -1
  %48 = shl i32 %.044101, 4
  %49 = or i32 %.014.i68, %48
  %50 = getelementptr inbounds nuw i8, ptr %.05099, i64 1
  %51 = icmp sgt i32 %.148100, 1
  br i1 %51, label %.lr.ph, label %._crit_edge.loopexit

._crit_edge.loopexit:                             ; preds = %_ZN10ODDLParser11hex2DecimalEc.exit.thread
  %52 = sext i32 %49 to i64
  br label %._crit_edge

._crit_edge:                                      ; preds = %15, %._crit_edge.loopexit, %.preheader69
  %.053.lcssa110 = phi ptr [ %.053.lcssa, %.preheader69 ], [ %.053.lcssa, %._crit_edge.loopexit ], [ %16, %15 ]
  %.044.lcssa = phi i64 [ 0, %.preheader69 ], [ %52, %._crit_edge.loopexit ], [ 0, %15 ]
  %53 = tail call noundef ptr @_ZN10ODDLParser14ValueAllocator13allocPrimDataENS_5Value9ValueTypeEm(i32 noundef 8, i64 noundef 1)
  store ptr %53, ptr %2, align 8
  %.not66 = icmp eq ptr %53, null
  br i1 %.not66, label %.loopexit, label %54

54:                                               ; preds = %._crit_edge
  tail call void @_ZN10ODDLParser5Value16setUnsignedInt64Em(ptr noundef nonnull align 8 dereferenceable(32) %53, i64 noundef %.044.lcssa)
  br label %.loopexit

.loopexit:                                        ; preds = %.preheader, %._crit_edge, %54, %12, %_ZN10ODDLParser16lookForNextTokenIcEEPT_S2_S2_.exit, %3
  %.0 = phi ptr [ %0, %3 ], [ %.0.lcssa.i, %_ZN10ODDLParser16lookForNextTokenIcEEPT_S2_S2_.exit ], [ %13, %12 ], [ %.053.lcssa110, %54 ], [ %.053.lcssa110, %._crit_edge ], [ %.255, %.preheader ]
  ret ptr %.0
}